(dp1
S'hand_motor_joint'
p2
F-0.38349899999999998
sS'head_pan_joint'
p3
F-5.8289309299297543e-06
sS'wrist_roll_joint'
p4
F0.00092072741375837097
sS'arm_lift_joint'
p5
F0.22499711354936264
sS'arm_flex_joint'
p6
F-1.8499295020736355
sS'wrist_flex_joint'
p7
F-1.2899993970493122
sS'head_tilt_joint'
p8
F-0.49999913906596949
sS'arm_roll_joint'
p9
F-4.1961945700386138e-06
s.