(dp1
S'hand_motor_joint'
p2
F1.2261359999999999
sS'head_pan_joint'
p3
F9.1710690699464692e-06
sS'wrist_roll_joint'
p4
F0.0016877274137585552
sS'arm_lift_joint'
p5
F0.029125087457460695
sS'arm_flex_joint'
p6
F-2.4999535020736356
sS'wrist_flex_joint'
p7
F0.96686860295068788
sS'head_tilt_joint'
p8
F-0.76915513906596944
sS'arm_roll_joint'
p9
F-1.4196194570104126e-05
s.